target datalayout = "e-m:e-p270:32:32-p271:32:32-p272:64:64-i64:64-i128:128-f80:128-n8:16:32:64-S128"
target triple = "x86_64-pc-linux-gnu"

%"class.cv::Point_.5" = type { float, float }
%"struct.std::_Vector_base.1" = type { %"struct.std::_Vector_base<cv::Point_<float>, std::allocator<cv::Point_<float>>>::_Vector_impl" }
%"struct.std::_Vector_base<cv::Point_<float>, std::allocator<cv::Point_<float>>>::_Vector_impl" = type { %"struct.std::_Vector_base<cv::Point_<float>, std::allocator<cv::Point_<float>>>::_Vector_impl_data" }
%"struct.std::_Vector_base<cv::Point_<float>, std::allocator<cv::Point_<float>>>::_Vector_impl_data" = type { ptr, ptr, ptr }
%"class.cv::Vec.6" = type { %"class.cv::Matx.7" }
%"class.cv::Matx.7" = type { [2 x float] }

; Function Attrs: inlinehint mustprogress nounwind uwtable
define internal noundef float @_ZN2cvL13saturate_castIfEET_f(float noundef %0) #8 {
  %2 = alloca float, align 4
  store float %0, ptr %2, align 4, !tbaa !39
  %3 = load float, ptr %2, align 4, !tbaa !39
  ret float %3
}

; Function Attrs: inlinehint mustprogress nounwind uwtable
define linkonce_odr hidden noundef nonnull align 4 dereferenceable(4) ptr @_ZNK2cv3VecIfLi2EEixEi(ptr noundef nonnull align 4 dereferenceable(8) %0, i32 noundef %1) #8 comdat align 2 {
  %3 = alloca ptr, align 8
  %4 = alloca i32, align 4
  store ptr %0, ptr %3, align 8, !tbaa !53
  store i32 %1, ptr %4, align 4, !tbaa !15
  %5 = load ptr, ptr %3, align 8
  %6 = getelementptr inbounds nuw %"class.cv::Matx.7", ptr %5, i32 0, i32 0
  %7 = load i32, ptr %4, align 4, !tbaa !15
  %8 = sext i32 %7 to i64
  %9 = getelementptr inbounds [2 x float], ptr %6, i64 0, i64 %8
  ret ptr %9
}

; Function Attrs: inlinehint mustprogress nounwind uwtable
define linkonce_odr hidden void @_ZN2cv4MatxIfLi2ELi1EEC2Ef(ptr noundef nonnull align 4 dereferenceable(8) %0, float noundef %1) unnamed_addr #8 comdat align 2 {
  %3 = alloca ptr, align 8
  %4 = alloca float, align 4
  %5 = alloca i32, align 4
  store ptr %0, ptr %3, align 8, !tbaa !80
  store float %1, ptr %4, align 4, !tbaa !39
  %6 = load ptr, ptr %3, align 8
  %7 = load float, ptr %4, align 4, !tbaa !39
  %8 = getelementptr inbounds nuw %"class.cv::Matx.7", ptr %6, i32 0, i32 0
  %9 = getelementptr inbounds [2 x float], ptr %8, i64 0, i64 0
  store float %7, ptr %9, align 4, !tbaa !39
  call void @llvm.lifetime.start.p0(i64 4, ptr %5) #3
  store i32 1, ptr %5, align 4, !tbaa !15
  br label %10

10:                                               ; preds = %19, %2
  %11 = load i32, ptr %5, align 4, !tbaa !15
  %12 = icmp slt i32 %11, 2
  br i1 %12, label %14, label %13

13:                                               ; preds = %10
  call void @llvm.lifetime.end.p0(i64 4, ptr %5) #3
  br label %22

14:                                               ; preds = %10
  %15 = getelementptr inbounds nuw %"class.cv::Matx.7", ptr %6, i32 0, i32 0
  %16 = load i32, ptr %5, align 4, !tbaa !15
  %17 = sext i32 %16 to i64
  %18 = getelementptr inbounds [2 x float], ptr %15, i64 0, i64 %17
  store float 0.000000e+00, ptr %18, align 4, !tbaa !39
  br label %19

19:                                               ; preds = %14
  %20 = load i32, ptr %5, align 4, !tbaa !15
  %21 = add nsw i32 %20, 1
  store i32 %21, ptr %5, align 4, !tbaa !15
  br label %10, !llvm.loop !82

22:                                               ; preds = %13
  ret void
}

; Function Attrs: inlinehint mustprogress uwtable
define internal noundef nonnull align 4 dereferenceable(8) ptr @_ZN2cvdVIfEERNS_6Point_IT_EES4_i(ptr noundef nonnull align 4 dereferenceable(8) %0, i32 noundef %1) #7 {
  %3 = alloca ptr, align 8
  %4 = alloca i32, align 4
  store ptr %0, ptr %3, align 8, !tbaa !52
  store i32 %1, ptr %4, align 4, !tbaa !15
  %5 = load ptr, ptr %3, align 8, !tbaa !52
  %6 = getelementptr inbounds nuw %"class.cv::Point_.5", ptr %5, i32 0, i32 0
  %7 = load float, ptr %6, align 4, !tbaa !41
  %8 = load i32, ptr %4, align 4, !tbaa !15
  %9 = sitofp i32 %8 to float
  %10 = fdiv float %7, %9
  %11 = call noundef float @_ZN2cvL13saturate_castIfEET_f(float noundef %10)
  %12 = load ptr, ptr %3, align 8, !tbaa !52
  %13 = getelementptr inbounds nuw %"class.cv::Point_.5", ptr %12, i32 0, i32 0
  store float %11, ptr %13, align 4, !tbaa !41
  %14 = load ptr, ptr %3, align 8, !tbaa !52
  %15 = getelementptr inbounds nuw %"class.cv::Point_.5", ptr %14, i32 0, i32 1
  %16 = load float, ptr %15, align 4, !tbaa !43
  %17 = load i32, ptr %4, align 4, !tbaa !15
  %18 = sitofp i32 %17 to float
  %19 = fdiv float %16, %18
  %20 = call noundef float @_ZN2cvL13saturate_castIfEET_f(float noundef %19)
  %21 = load ptr, ptr %3, align 8, !tbaa !52
  %22 = getelementptr inbounds nuw %"class.cv::Point_.5", ptr %21, i32 0, i32 1
  store float %20, ptr %22, align 4, !tbaa !43
  %23 = load ptr, ptr %3, align 8, !tbaa !52
  ret ptr %23
}

; Function Attrs: inlinehint mustprogress nounwind uwtable
define internal noundef nonnull align 4 dereferenceable(8) ptr @_ZN2cvpLIfEERNS_6Point_IT_EES4_RKS3_(ptr noundef nonnull align 4 dereferenceable(8) %0, ptr noundef nonnull align 4 dereferenceable(8) %1) #8 {
  %3 = alloca ptr, align 8
  %4 = alloca ptr, align 8
  store ptr %0, ptr %3, align 8, !tbaa !52
  store ptr %1, ptr %4, align 8, !tbaa !52
  %5 = load ptr, ptr %4, align 8, !tbaa !52
  %6 = getelementptr inbounds nuw %"class.cv::Point_.5", ptr %5, i32 0, i32 0
  %7 = load float, ptr %6, align 4, !tbaa !41
  %8 = load ptr, ptr %3, align 8, !tbaa !52
  %9 = getelementptr inbounds nuw %"class.cv::Point_.5", ptr %8, i32 0, i32 0
  %10 = load float, ptr %9, align 4, !tbaa !41
  %11 = fadd float %10, %7
  store float %11, ptr %9, align 4, !tbaa !41
  %12 = load ptr, ptr %4, align 8, !tbaa !52
  %13 = getelementptr inbounds nuw %"class.cv::Point_.5", ptr %12, i32 0, i32 1
  %14 = load float, ptr %13, align 4, !tbaa !43
  %15 = load ptr, ptr %3, align 8, !tbaa !52
  %16 = getelementptr inbounds nuw %"class.cv::Point_.5", ptr %15, i32 0, i32 1
  %17 = load float, ptr %16, align 4, !tbaa !43
  %18 = fadd float %17, %14
  store float %18, ptr %16, align 4, !tbaa !43
  %19 = load ptr, ptr %3, align 8, !tbaa !52
  ret ptr %19
}

; Function Attrs: mustprogress nounwind uwtable
define linkonce_odr hidden noundef nonnull align 4 dereferenceable(8) ptr @_ZNKSt6vectorIN2cv6Point_IfEESaIS2_EEixEm(ptr noundef nonnull align 8 dereferenceable(24) %0, i64 noundef %1) #6 comdat align 2 {
  %3 = alloca ptr, align 8
  %4 = alloca i64, align 8
  store ptr %0, ptr %3, align 8, !tbaa !3
  store i64 %1, ptr %4, align 8, !tbaa !22
  %5 = load ptr, ptr %3, align 8
  %6 = getelementptr inbounds nuw %"struct.std::_Vector_base.1", ptr %5, i32 0, i32 0
  %7 = getelementptr inbounds nuw %"struct.std::_Vector_base<cv::Point_<float>, std::allocator<cv::Point_<float>>>::_Vector_impl_data", ptr %6, i32 0, i32 0
  %8 = load ptr, ptr %7, align 8, !tbaa !49
  %9 = load i64, ptr %4, align 8, !tbaa !22
  %10 = getelementptr inbounds nuw %"class.cv::Point_.5", ptr %8, i64 %9
  ret ptr %10
}

; Function Attrs: mustprogress nounwind uwtable
define linkonce_odr hidden noundef i64 @_ZNKSt6vectorIN2cv6Point_IfEESaIS2_EE4sizeEv(ptr noundef nonnull align 8 dereferenceable(24) %0) #6 comdat align 2 {
  %2 = alloca ptr, align 8
  store ptr %0, ptr %2, align 8, !tbaa !3
  %3 = load ptr, ptr %2, align 8
  %4 = getelementptr inbounds nuw %"struct.std::_Vector_base.1", ptr %3, i32 0, i32 0
  %5 = getelementptr inbounds nuw %"struct.std::_Vector_base<cv::Point_<float>, std::allocator<cv::Point_<float>>>::_Vector_impl_data", ptr %4, i32 0, i32 1
  %6 = load ptr, ptr %5, align 8, !tbaa !46
  %7 = getelementptr inbounds nuw %"struct.std::_Vector_base.1", ptr %3, i32 0, i32 0
  %8 = getelementptr inbounds nuw %"struct.std::_Vector_base<cv::Point_<float>, std::allocator<cv::Point_<float>>>::_Vector_impl_data", ptr %7, i32 0, i32 0
  %9 = load ptr, ptr %8, align 8, !tbaa !49
  %10 = ptrtoint ptr %6 to i64
  %11 = ptrtoint ptr %9 to i64
  %12 = sub i64 %10, %11
  %13 = sdiv exact i64 %12, 8
  ret i64 %13
}

; Function Attrs: inlinehint mustprogress uwtable
define linkonce_odr hidden void @_ZN2cv6Point_IfEC2ERKNS_3VecIfLi2EEE(ptr noundef nonnull align 4 dereferenceable(8) %0, ptr noundef nonnull align 4 dereferenceable(8) %1) unnamed_addr #7 comdat align 2 {
  %3 = alloca ptr, align 8
  %4 = alloca ptr, align 8
  store ptr %0, ptr %3, align 8, !tbaa !52
  store ptr %1, ptr %4, align 8, !tbaa !53
  %5 = load ptr, ptr %3, align 8
  %6 = getelementptr inbounds nuw %"class.cv::Point_.5", ptr %5, i32 0, i32 0
  %7 = load ptr, ptr %4, align 8, !tbaa !53
  %8 = call noundef nonnull align 4 dereferenceable(4) ptr @_ZNK2cv3VecIfLi2EEixEi(ptr noundef nonnull align 4 dereferenceable(8) %7, i32 noundef 0)
  %9 = load float, ptr %8, align 4, !tbaa !39
  store float %9, ptr %6, align 4, !tbaa !41
  %10 = getelementptr inbounds nuw %"class.cv::Point_.5", ptr %5, i32 0, i32 1
  %11 = load ptr, ptr %4, align 8, !tbaa !53
  %12 = call noundef nonnull align 4 dereferenceable(4) ptr @_ZNK2cv3VecIfLi2EEixEi(ptr noundef nonnull align 4 dereferenceable(8) %11, i32 noundef 1)
  %13 = load float, ptr %12, align 4, !tbaa !39
  store float %13, ptr %10, align 4, !tbaa !43
  ret void
}

; Function Attrs: inlinehint mustprogress uwtable
define linkonce_odr hidden void @_ZN2cv3VecIfLi2EEC2Ef(ptr noundef nonnull align 4 dereferenceable(8) %0, float noundef %1) unnamed_addr #7 comdat align 2 {
  %3 = alloca ptr, align 8
  %4 = alloca float, align 4
  store ptr %0, ptr %3, align 8, !tbaa !53
  store float %1, ptr %4, align 4, !tbaa !39
  %5 = load ptr, ptr %3, align 8
  %6 = load float, ptr %4, align 4, !tbaa !39
  call void @_ZN2cv4MatxIfLi2ELi1EEC2Ef(ptr noundef nonnull align 4 dereferenceable(8) %5, float noundef %6)
  ret void
}

; Function Attrs: inlinehint mustprogress nounwind uwtable
define linkonce_odr hidden void @_ZN2cv6Point_IfEC2Ev(ptr noundef nonnull align 4 dereferenceable(8) %0) unnamed_addr #8 comdat align 2 {
  %2 = alloca ptr, align 8
  store ptr %0, ptr %2, align 8, !tbaa !52
  %3 = load ptr, ptr %2, align 8
  %4 = getelementptr inbounds nuw %"class.cv::Point_.5", ptr %3, i32 0, i32 0
  store float 0.000000e+00, ptr %4, align 4, !tbaa !41
  %5 = getelementptr inbounds nuw %"class.cv::Point_.5", ptr %3, i32 0, i32 1
  store float 0.000000e+00, ptr %5, align 4, !tbaa !43
  ret void
}

; Function Attrs: mustprogress uwtable
define hidden <2 x float> @_ZN2cv3mcc11mace_centerERKSt6vectorINS_6Point_IfEESaIS3_EE(ptr noundef nonnull align 8 dereferenceable(24) %0) #11 {
  %2 = alloca %"class.cv::Point_.5", align 4
  %3 = alloca ptr, align 8
  %4 = alloca i32, align 4
  %5 = alloca %"class.cv::Point_.5", align 4
  %6 = alloca %"class.cv::Vec.6", align 4
  %7 = alloca i32, align 4
  store ptr %0, ptr %3, align 8, !tbaa !3
  call void @_ZN2cv6Point_IfEC2Ev(ptr noundef nonnull align 4 dereferenceable(8) %2)
  call void @llvm.lifetime.start.p0(i64 4, ptr %4) #3
  call void @llvm.lifetime.start.p0(i64 8, ptr %5) #3
  call void @llvm.lifetime.start.p0(i64 8, ptr %6) #3
  call void @_ZN2cv3VecIfLi2EEC2Ef(ptr noundef nonnull align 4 dereferenceable(8) %6, float noundef 0.000000e+00)
  call void @_ZN2cv6Point_IfEC2ERKNS_3VecIfLi2EEE(ptr noundef nonnull align 4 dereferenceable(8) %5, ptr noundef nonnull align 4 dereferenceable(8) %6)
  call void @llvm.memcpy.p0.p0.i64(ptr align 4 %2, ptr align 4 %5, i64 8, i1 false), !tbaa.struct !50
  call void @llvm.lifetime.end.p0(i64 8, ptr %6) #3
  call void @llvm.lifetime.end.p0(i64 8, ptr %5) #3
  %8 = load ptr, ptr %3, align 8, !tbaa !3
  %9 = call noundef i64 @_ZNKSt6vectorIN2cv6Point_IfEESaIS2_EE4sizeEv(ptr noundef nonnull align 8 dereferenceable(24) %8) #3
  %10 = trunc i64 %9 to i32
  store i32 %10, ptr %4, align 4, !tbaa !15
  call void @llvm.lifetime.start.p0(i64 4, ptr %7) #3
  store i32 0, ptr %7, align 4, !tbaa !15
  br label %11

11:                                               ; preds = %22, %1
  %12 = load i32, ptr %7, align 4, !tbaa !15
  %13 = load i32, ptr %4, align 4, !tbaa !15
  %14 = icmp slt i32 %12, %13
  br i1 %14, label %16, label %15

15:                                               ; preds = %11
  call void @llvm.lifetime.end.p0(i64 4, ptr %7) #3
  br label %25

16:                                               ; preds = %11
  %17 = load ptr, ptr %3, align 8, !tbaa !3
  %18 = load i32, ptr %7, align 4, !tbaa !15
  %19 = sext i32 %18 to i64
  %20 = call noundef nonnull align 4 dereferenceable(8) ptr @_ZNKSt6vectorIN2cv6Point_IfEESaIS2_EEixEm(ptr noundef nonnull align 8 dereferenceable(24) %17, i64 noundef %19) #3
  %21 = call noundef nonnull align 4 dereferenceable(8) ptr @_ZN2cvpLIfEERNS_6Point_IT_EES4_RKS3_(ptr noundef nonnull align 4 dereferenceable(8) %2, ptr noundef nonnull align 4 dereferenceable(8) %20)
  br label %22

22:                                               ; preds = %16
  %23 = load i32, ptr %7, align 4, !tbaa !15
  %24 = add nsw i32 %23, 1
  store i32 %24, ptr %7, align 4, !tbaa !15
  br label %11, !llvm.loop !51

25:                                               ; preds = %15
  %26 = load i32, ptr %4, align 4, !tbaa !15
  %27 = call noundef nonnull align 4 dereferenceable(8) ptr @_ZN2cvdVIfEERNS_6Point_IT_EES4_i(ptr noundef nonnull align 4 dereferenceable(8) %2, i32 noundef %26)
  call void @llvm.lifetime.end.p0(i64 4, ptr %4) #3
  %28 = load <2 x float>, ptr %2, align 4
  ret <2 x float> %28
}