; Function Attrs: mustprogress nofree norecurse nosync nounwind willreturn memory(read, inaccessiblemem: none) uwtable
define hidden <2 x float> @_ZN2cv3mcc11mace_centerERKSt6vectorINS_6Point_IfEESaIS3_EE(ptr noundef nonnull readonly align 8 captures(none) dereferenceable(24) %0) local_unnamed_addr #7 {
  %2 = getelementptr inbounds nuw i8, ptr %0, i64 8
  %3 = load ptr, ptr %2, align 8, !tbaa !19
  %4 = load ptr, ptr %0, align 8, !tbaa !22
  %5 = ptrtoint ptr %3 to i64
  %6 = ptrtoint ptr %4 to i64
  %7 = sub i64 %5, %6
  %8 = lshr exact i64 %7, 3
  %9 = trunc i64 %8 to i32
  %10 = icmp sgt i32 %9, 0
  br i1 %10, label %.lr.ph.preheader, label %._crit_edge

.lr.ph.preheader:                                 ; preds = %1
  %wide.trip.count = and i64 %8, 2147483647
  br label %.lr.ph

._crit_edge:                                      ; preds = %.lr.ph, %1
  %.sroa.011.0.lcssa = phi <2 x float> [ zeroinitializer, %1 ], [ %.sroa.011.4.vec.insert28, %.lr.ph ]
  %.sroa.011.0.vec.extract = extractelement <2 x float> %.sroa.011.0.lcssa, i64 0
  %11 = sitofp i32 %9 to float
  %12 = fdiv float %.sroa.011.0.vec.extract, %11
  %.sroa.011.0.vec.insert15 = insertelement <2 x float> poison, float %12, i64 0
  %.sroa.011.4.vec.extract = extractelement <2 x float> %.sroa.011.0.lcssa, i64 1
  %13 = fdiv float %.sroa.011.4.vec.extract, %11
  %.sroa.011.4.vec.insert24 = insertelement <2 x float> %.sroa.011.0.vec.insert15, float %13, i64 1
  ret <2 x float> %.sroa.011.4.vec.insert24

.lr.ph:                                           ; preds = %.lr.ph.preheader, %.lr.ph
  %indvars.iv = phi i64 [ 0, %.lr.ph.preheader ], [ %indvars.iv.next, %.lr.ph ]
  %.sroa.011.031 = phi <2 x float> [ zeroinitializer, %.lr.ph.preheader ], [ %.sroa.011.4.vec.insert28, %.lr.ph ]
  %14 = getelementptr inbounds nuw %"class.cv::Point_.5", ptr %4, i64 %indvars.iv
  %.val = load float, ptr %14, align 4, !tbaa !23
  %15 = getelementptr i8, ptr %14, i64 4
  %.val7 = load float, ptr %15, align 4, !tbaa !26
  %.sroa.011.0.vec.extract17 = extractelement <2 x float> %.sroa.011.031, i64 0
  %16 = fadd float %.sroa.011.0.vec.extract17, %.val
  %.sroa.011.0.vec.insert19 = insertelement <2 x float> poison, float %16, i64 0
  %.sroa.011.4.vec.extract26 = extractelement <2 x float> %.sroa.011.031, i64 1
  %17 = fadd float %.sroa.011.4.vec.extract26, %.val7
  %.sroa.011.4.vec.insert28 = insertelement <2 x float> %.sroa.011.0.vec.insert19, float %17, i64 1
  %indvars.iv.next = add nuw nsw i64 %indvars.iv, 1
  %exitcond.not = icmp eq i64 %indvars.iv.next, %wide.trip.count
  br i1 %exitcond.not, label %._crit_edge, label %.lr.ph, !llvm.loop !29
}